; Function Attrs: mustprogress uwtable
define dso_local noundef nonnull align 8 dereferenceable(96) ptr @_ZN23cmUVProcessChainBuilder10AddCommandERKSt6vectorINSt7__cxx1112basic_stringIcSt11char_traitsIcESaIcEEESaIS6_EE(ptr noundef nonnull returned align 8 dereferenceable(96) %0, ptr noundef nonnull align 8 dereferenceable(24) %1) local_unnamed_addr #2 align 2 {
  %3 = load ptr, ptr %1, align 8
  %4 = getelementptr inbounds nuw i8, ptr %1, i64 8
  %5 = load ptr, ptr %4, align 8
  %6 = icmp eq ptr %3, %5
  br i1 %6, label %20, label %7

7:                                                ; preds = %2
  %8 = getelementptr inbounds nuw i8, ptr %0, i64 32
  %9 = load ptr, ptr %8, align 8
  %10 = getelementptr inbounds nuw i8, ptr %0, i64 40
  %11 = load ptr, ptr %10, align 8
  %.not.i = icmp eq ptr %9, %11
  br i1 %.not.i, label %15, label %12

12:                                               ; preds = %7
  tail call void @llvm.memset.p0.i64(ptr noundef nonnull align 8 dereferenceable(24) %9, i8 0, i64 24, i1 false)
  %13 = load ptr, ptr %8, align 8
  %14 = getelementptr inbounds nuw i8, ptr %13, i64 24
  store ptr %14, ptr %8, align 8
  br label %_ZNSt6vectorIN23cmUVProcessChainBuilder20ProcessConfigurationESaIS1_EE12emplace_backIJEEERS1_DpOT_.exit

15:                                               ; preds = %7
  %16 = getelementptr inbounds nuw i8, ptr %0, i64 24
  tail call void @_ZNSt6vectorIN23cmUVProcessChainBuilder20ProcessConfigurationESaIS1_EE17_M_realloc_insertIJEEEvN9__gnu_cxx17__normal_iteratorIPS1_S3_EEDpOT_(ptr noundef nonnull align 8 dereferenceable(24) %16, ptr %9)
  %.pre = load ptr, ptr %8, align 8
  br label %_ZNSt6vectorIN23cmUVProcessChainBuilder20ProcessConfigurationESaIS1_EE12emplace_backIJEEERS1_DpOT_.exit

_ZNSt6vectorIN23cmUVProcessChainBuilder20ProcessConfigurationESaIS1_EE12emplace_backIJEEERS1_DpOT_.exit: ; preds = %12, %15
  %17 = phi ptr [ %14, %12 ], [ %.pre, %15 ]
  %18 = getelementptr inbounds i8, ptr %17, i64 -24
  %19 = tail call noundef nonnull align 8 dereferenceable(24) ptr @_ZNSt6vectorINSt7__cxx1112basic_stringIcSt11char_traitsIcESaIcEEESaIS5_EEaSERKS7_(ptr noundef nonnull align 8 dereferenceable(24) %18, ptr noundef nonnull align 8 dereferenceable(24) %1)
  br label %20

20:                                               ; preds = %_ZNSt6vectorIN23cmUVProcessChainBuilder20ProcessConfigurationESaIS1_EE12emplace_backIJEEERS1_DpOT_.exit, %2
  ret ptr %0
}